target datalayout = "e-m:e-p270:32:32-p271:32:32-p272:64:64-i64:64-i128:128-f80:128-n8:16:32:64-S128"
target triple = "x86_64-pc-linux-gnu"

%"struct.google::protobuf::internal::EnumEntry" = type <{ %"class.google::protobuf::StringPiece", i32, [4 x i8] }>
%"class.google::protobuf::StringPiece" = type { ptr, i64 }
%"class.std::__cxx11::basic_string" = type { %"struct.std::__cxx11::basic_string<char>::_Alloc_hider", i64, %union.anon }
%"struct.std::__cxx11::basic_string<char>::_Alloc_hider" = type { ptr }
%union.anon = type { i64, [8 x i8] }

@_ZN13sentencepieceL29TrainerSpec_ModelType_entriesE = internal global [4 x %"struct.google::protobuf::internal::EnumEntry"] zeroinitializer, align 16

; Function Attrs: mustprogress nounwind uwtable
define available_externally noundef ptr @_ZNKSt7__cxx1112basic_stringIcSt11char_traitsIcESaIcEE7_M_dataEv(ptr noundef nonnull align 8 dereferenceable(32) %0) #5 align 2 {
  %2 = alloca ptr, align 8
  store ptr %0, ptr %2, align 8, !tbaa !27
  %3 = load ptr, ptr %2, align 8
  %4 = getelementptr inbounds nuw %"class.std::__cxx11::basic_string", ptr %3, i32 0, i32 0
  %5 = getelementptr inbounds nuw %"struct.std::__cxx11::basic_string<char>::_Alloc_hider", ptr %4, i32 0, i32 0
  %6 = load ptr, ptr %5, align 8, !tbaa !251
  ret ptr %6
}

; Function Attrs: mustprogress nounwind uwtable
define linkonce_odr noundef i64 @_ZN6google8protobuf11StringPiece22CheckedSsizeTFromSizeTEm(i64 noundef %0) #5 comdat align 2 {
  %2 = alloca i64, align 8
  store i64 %0, ptr %2, align 8, !tbaa !17
  %3 = load i64, ptr %2, align 8, !tbaa !17
  ret i64 %3
}

; Function Attrs: mustprogress nounwind uwtable
define available_externally noundef i64 @_ZNKSt7__cxx1112basic_stringIcSt11char_traitsIcESaIcEE4sizeEv(ptr noundef nonnull align 8 dereferenceable(32) %0) #5 align 2 {
  %2 = alloca ptr, align 8
  store ptr %0, ptr %2, align 8, !tbaa !27
  %3 = load ptr, ptr %2, align 8
  %4 = getelementptr inbounds nuw %"class.std::__cxx11::basic_string", ptr %3, i32 0, i32 1
  %5 = load i64, ptr %4, align 8, !tbaa !145
  ret i64 %5
}

; Function Attrs: mustprogress nounwind uwtable
define available_externally noundef ptr @_ZNKSt7__cxx1112basic_stringIcSt11char_traitsIcESaIcEE4dataEv(ptr noundef nonnull align 8 dereferenceable(32) %0) #5 align 2 {
  %2 = alloca ptr, align 8
  store ptr %0, ptr %2, align 8, !tbaa !27
  %3 = load ptr, ptr %2, align 8
  %4 = call noundef ptr @_ZNKSt7__cxx1112basic_stringIcSt11char_traitsIcESaIcEE7_M_dataEv(ptr noundef nonnull align 8 dereferenceable(32) %3)
  ret ptr %4
}

; Function Attrs: mustprogress uwtable
define linkonce_odr void @_ZN6google8protobuf11StringPieceC2ISaIcEEERKNSt7__cxx1112basic_stringIcSt11char_traitsIcET_EE(ptr noundef nonnull align 8 dereferenceable(16) %0, ptr noundef nonnull align 8 dereferenceable(32) %1) unnamed_addr #4 comdat align 2 {
  %3 = alloca ptr, align 8
  %4 = alloca ptr, align 8
  store ptr %0, ptr %3, align 8, !tbaa !14
  store ptr %1, ptr %4, align 8, !tbaa !27
  %5 = load ptr, ptr %3, align 8
  %6 = getelementptr inbounds nuw %"class.google::protobuf::StringPiece", ptr %5, i32 0, i32 0
  %7 = load ptr, ptr %4, align 8, !tbaa !27
  %8 = call noundef ptr @_ZNKSt7__cxx1112basic_stringIcSt11char_traitsIcESaIcEE4dataEv(ptr noundef nonnull align 8 dereferenceable(32) %7) #3
  store ptr %8, ptr %6, align 8, !tbaa !18
  %9 = getelementptr inbounds nuw %"class.google::protobuf::StringPiece", ptr %5, i32 0, i32 1
  store i64 0, ptr %9, align 8, !tbaa !19
  %10 = load ptr, ptr %4, align 8, !tbaa !27
  %11 = call noundef i64 @_ZNKSt7__cxx1112basic_stringIcSt11char_traitsIcESaIcEE4sizeEv(ptr noundef nonnull align 8 dereferenceable(32) %10) #3
  %12 = call noundef i64 @_ZN6google8protobuf11StringPiece22CheckedSsizeTFromSizeTEm(i64 noundef %11)
  %13 = getelementptr inbounds nuw %"class.google::protobuf::StringPiece", ptr %5, i32 0, i32 1
  store i64 %12, ptr %13, align 8, !tbaa !19
  ret void
}

; Function Attrs: mustprogress uwtable
define noundef zeroext i1 @_ZN13sentencepiece27TrainerSpec_ModelType_ParseERKNSt7__cxx1112basic_stringIcSt11char_traitsIcESaIcEEEPNS_21TrainerSpec_ModelTypeE(ptr noundef nonnull align 8 dereferenceable(32) %0, ptr noundef %1) #4 {
  %3 = alloca ptr, align 8
  %4 = alloca ptr, align 8
  %5 = alloca i32, align 4
  %6 = alloca i8, align 1
  %7 = alloca %"class.google::protobuf::StringPiece", align 8
  store ptr %0, ptr %3, align 8, !tbaa !27
  store ptr %1, ptr %4, align 8, !tbaa !3
  call void @llvm.lifetime.start.p0(i64 4, ptr %5) #3
  call void @llvm.lifetime.start.p0(i64 1, ptr %6) #3
  %8 = load ptr, ptr %3, align 8, !tbaa !27
  call void @_ZN6google8protobuf11StringPieceC2ISaIcEEERKNSt7__cxx1112basic_stringIcSt11char_traitsIcET_EE(ptr noundef nonnull align 8 dereferenceable(16) %7, ptr noundef nonnull align 8 dereferenceable(32) %8)
  %9 = getelementptr inbounds nuw { ptr, i64 }, ptr %7, i32 0, i32 0
  %10 = load ptr, ptr %9, align 8
  %11 = getelementptr inbounds nuw { ptr, i64 }, ptr %7, i32 0, i32 1
  %12 = load i64, ptr %11, align 8
  %13 = call noundef zeroext i1 @_ZN6google8protobuf8internal15LookUpEnumValueEPKNS1_9EnumEntryEmNS0_11StringPieceEPi(ptr noundef @_ZN13sentencepieceL29TrainerSpec_ModelType_entriesE, i64 noundef 4, ptr %10, i64 %12, ptr noundef %5)
  %14 = zext i1 %13 to i8
  store i8 %14, ptr %6, align 1, !tbaa !23
  %15 = load i8, ptr %6, align 1, !tbaa !23, !range !29, !noundef !30
  %16 = trunc i8 %15 to i1
  br i1 %16, label %17, label %20

17:                                               ; preds = %2
  %18 = load i32, ptr %5, align 4, !tbaa !7
  %19 = load ptr, ptr %4, align 8, !tbaa !3
  store i32 %18, ptr %19, align 4, !tbaa !20
  br label %20

20:                                               ; preds = %17, %2
  %21 = load i8, ptr %6, align 1, !tbaa !23, !range !29, !noundef !30
  %22 = trunc i8 %21 to i1
  call void @llvm.lifetime.end.p0(i64 1, ptr %6) #3
  call void @llvm.lifetime.end.p0(i64 4, ptr %5) #3
  ret i1 %22
}